target datalayout = "e-m:e-p270:32:32-p271:32:32-p272:64:64-i64:64-i128:128-f80:128-n8:16:32:64-S128"
target triple = "x86_64-pc-linux-gnu"

%struct.cli_matcher = type { i32, ptr, ptr, ptr, ptr, i32, i32, i32, i32, i32, %struct.cli_hash_patt, %struct.cli_hash_wild, i32, i32, i32, i32, i32, ptr, ptr, ptr, ptr, ptr, ptr, i32, i32, i8, i8, ptr, i16, i8, i32, ptr, i32, i32, i32, ptr, ptr, i32, ptr, i64, i64, ptr }
%struct.cli_hash_patt = type { [3 x %struct.cli_htu32] }
%struct.cli_htu32 = type { ptr, i64, i64, i64 }
%struct.cli_hash_wild = type { [3 x %struct.cli_sz_hash] }
%struct.cli_sz_hash = type { ptr, ptr, i32 }
%struct.cli_ac_patt = type { ptr, ptr, [3 x i16], [3 x i16], i32, i32, i32, [3 x i32], [2 x i16], ptr, ptr, [2 x i16], [2 x i16], i16, i16, i16, i16, ptr, i16, i16, [4 x i32], i32, i32, i32, i8, i8 }
%struct.cli_ac_node = type { ptr, ptr, ptr }

; Function Attrs: nounwind uwtable
define internal void @free_trans_nodes(ptr noundef %0) #0 {
  %2 = alloca ptr, align 8
  %3 = alloca i32, align 4
  store ptr %0, ptr %2, align 8, !tbaa !3
  call void @llvm.lifetime.start.p0(i64 4, ptr %3) #16
  store i32 0, ptr %3, align 4, !tbaa !49
  store i32 0, ptr %3, align 4, !tbaa !49
  br label %4

4:                                                ; preds = %22, %1
  %5 = load i32, ptr %3, align 4, !tbaa !49
  %6 = zext i32 %5 to i64
  %7 = load ptr, ptr %2, align 8, !tbaa !3
  %8 = getelementptr inbounds nuw %struct.cli_matcher, ptr %7, i32 0, i32 39
  %9 = load i64, ptr %8, align 8, !tbaa !81
  %10 = icmp ult i64 %6, %9
  br i1 %10, label %11, label %25

11:                                               ; preds = %4
  %12 = load ptr, ptr %2, align 8, !tbaa !3
  %13 = getelementptr inbounds nuw %struct.cli_matcher, ptr %12, i32 0, i32 41
  %14 = load ptr, ptr %13, align 8, !tbaa !37
  %15 = load ptr, ptr %2, align 8, !tbaa !3
  %16 = getelementptr inbounds nuw %struct.cli_matcher, ptr %15, i32 0, i32 38
  %17 = load ptr, ptr %16, align 8, !tbaa !82
  %18 = load i32, ptr %3, align 4, !tbaa !49
  %19 = zext i32 %18 to i64
  %20 = getelementptr inbounds nuw ptr, ptr %17, i64 %19
  %21 = load ptr, ptr %20, align 8, !tbaa !83
  call void @mpool_free(ptr noundef %14, ptr noundef %21)
  br label %22

22:                                               ; preds = %11
  %23 = load i32, ptr %3, align 4, !tbaa !49
  %24 = add i32 %23, 1
  store i32 %24, ptr %3, align 4, !tbaa !49
  br label %4

25:                                               ; preds = %4
  %26 = load ptr, ptr %2, align 8, !tbaa !3
  %27 = getelementptr inbounds nuw %struct.cli_matcher, ptr %26, i32 0, i32 41
  %28 = load ptr, ptr %27, align 8, !tbaa !37
  %29 = load ptr, ptr %2, align 8, !tbaa !3
  %30 = getelementptr inbounds nuw %struct.cli_matcher, ptr %29, i32 0, i32 38
  %31 = load ptr, ptr %30, align 8, !tbaa !82
  call void @mpool_free(ptr noundef %28, ptr noundef %31)
  %32 = load ptr, ptr %2, align 8, !tbaa !3
  %33 = getelementptr inbounds nuw %struct.cli_matcher, ptr %32, i32 0, i32 38
  store ptr null, ptr %33, align 8, !tbaa !82
  %34 = load ptr, ptr %2, align 8, !tbaa !3
  %35 = getelementptr inbounds nuw %struct.cli_matcher, ptr %34, i32 0, i32 39
  store i64 0, ptr %35, align 8, !tbaa !81
  %36 = load ptr, ptr %2, align 8, !tbaa !3
  %37 = getelementptr inbounds nuw %struct.cli_matcher, ptr %36, i32 0, i32 40
  store i64 0, ptr %37, align 8, !tbaa !84
  call void @llvm.lifetime.end.p0(i64 4, ptr %3) #16
  ret void
}

; Function Attrs: nounwind uwtable
define void @cli_ac_free(ptr noundef %0) #0 {
  %2 = alloca ptr, align 8
  %3 = alloca i32, align 4
  %4 = alloca ptr, align 8
  store ptr %0, ptr %2, align 8, !tbaa !3
  call void @llvm.lifetime.start.p0(i64 4, ptr %3) #16
  store i32 0, ptr %3, align 4, !tbaa !49
  call void @llvm.lifetime.start.p0(i64 8, ptr %4) #16
  store ptr null, ptr %4, align 8, !tbaa !8
  store i32 0, ptr %3, align 4, !tbaa !49
  br label %5

5:                                                ; preds = %63, %1
  %6 = load i32, ptr %3, align 4, !tbaa !49
  %7 = load ptr, ptr %2, align 8, !tbaa !3
  %8 = getelementptr inbounds nuw %struct.cli_matcher, ptr %7, i32 0, i32 15
  %9 = load i32, ptr %8, align 4, !tbaa !36
  %10 = icmp ult i32 %6, %9
  br i1 %10, label %11, label %66

11:                                               ; preds = %5
  %12 = load ptr, ptr %2, align 8, !tbaa !3
  %13 = getelementptr inbounds nuw %struct.cli_matcher, ptr %12, i32 0, i32 21
  %14 = load ptr, ptr %13, align 8, !tbaa !38
  %15 = load i32, ptr %3, align 4, !tbaa !49
  %16 = zext i32 %15 to i64
  %17 = getelementptr inbounds nuw ptr, ptr %14, i64 %16
  %18 = load ptr, ptr %17, align 8, !tbaa !8
  store ptr %18, ptr %4, align 8, !tbaa !8
  %19 = load ptr, ptr %2, align 8, !tbaa !3
  %20 = getelementptr inbounds nuw %struct.cli_matcher, ptr %19, i32 0, i32 41
  %21 = load ptr, ptr %20, align 8, !tbaa !37
  %22 = load ptr, ptr %4, align 8, !tbaa !8
  %23 = getelementptr inbounds nuw %struct.cli_ac_patt, ptr %22, i32 0, i32 1
  %24 = load ptr, ptr %23, align 8, !tbaa !62
  %25 = icmp ne ptr %24, null
  br i1 %25, label %26, label %30

26:                                               ; preds = %11
  %27 = load ptr, ptr %4, align 8, !tbaa !8
  %28 = getelementptr inbounds nuw %struct.cli_ac_patt, ptr %27, i32 0, i32 1
  %29 = load ptr, ptr %28, align 8, !tbaa !62
  br label %34

30:                                               ; preds = %11
  %31 = load ptr, ptr %4, align 8, !tbaa !8
  %32 = getelementptr inbounds nuw %struct.cli_ac_patt, ptr %31, i32 0, i32 0
  %33 = load ptr, ptr %32, align 8, !tbaa !31
  br label %34

34:                                               ; preds = %30, %26
  %35 = phi ptr [ %29, %26 ], [ %33, %30 ]
  call void @mpool_free(ptr noundef %21, ptr noundef %35)
  %36 = load ptr, ptr %4, align 8, !tbaa !8
  %37 = getelementptr inbounds nuw %struct.cli_ac_patt, ptr %36, i32 0, i32 7
  %38 = getelementptr inbounds [3 x i32], ptr %37, i64 0, i64 0
  %39 = load i32, ptr %38, align 8, !tbaa !49
  %40 = icmp eq i32 %39, 1
  br i1 %40, label %48, label %41

41:                                               ; preds = %34
  %42 = load ptr, ptr %2, align 8, !tbaa !3
  %43 = getelementptr inbounds nuw %struct.cli_matcher, ptr %42, i32 0, i32 41
  %44 = load ptr, ptr %43, align 8, !tbaa !37
  %45 = load ptr, ptr %4, align 8, !tbaa !8
  %46 = getelementptr inbounds nuw %struct.cli_ac_patt, ptr %45, i32 0, i32 9
  %47 = load ptr, ptr %46, align 8, !tbaa !63
  call void @mpool_free(ptr noundef %44, ptr noundef %47)
  br label %48

48:                                               ; preds = %41, %34
  %49 = load ptr, ptr %4, align 8, !tbaa !8
  %50 = getelementptr inbounds nuw %struct.cli_ac_patt, ptr %49, i32 0, i32 15
  %51 = load i16, ptr %50, align 4, !tbaa !64
  %52 = icmp ne i16 %51, 0
  br i1 %52, label %53, label %58

53:                                               ; preds = %48
  %54 = load ptr, ptr %2, align 8, !tbaa !3
  %55 = getelementptr inbounds nuw %struct.cli_matcher, ptr %54, i32 0, i32 41
  %56 = load ptr, ptr %55, align 8, !tbaa !37
  %57 = load ptr, ptr %4, align 8, !tbaa !8
  call void @ac_free_special(ptr noundef %56, ptr noundef %57)
  br label %58

58:                                               ; preds = %53, %48
  %59 = load ptr, ptr %2, align 8, !tbaa !3
  %60 = getelementptr inbounds nuw %struct.cli_matcher, ptr %59, i32 0, i32 41
  %61 = load ptr, ptr %60, align 8, !tbaa !37
  %62 = load ptr, ptr %4, align 8, !tbaa !8
  call void @mpool_free(ptr noundef %61, ptr noundef %62)
  br label %63

63:                                               ; preds = %58
  %64 = load i32, ptr %3, align 4, !tbaa !49
  %65 = add i32 %64, 1
  store i32 %65, ptr %3, align 4, !tbaa !49
  br label %5

66:                                               ; preds = %5
  %67 = load ptr, ptr %2, align 8, !tbaa !3
  %68 = getelementptr inbounds nuw %struct.cli_matcher, ptr %67, i32 0, i32 21
  %69 = load ptr, ptr %68, align 8, !tbaa !38
  %70 = icmp ne ptr %69, null
  br i1 %70, label %71, label %78

71:                                               ; preds = %66
  %72 = load ptr, ptr %2, align 8, !tbaa !3
  %73 = getelementptr inbounds nuw %struct.cli_matcher, ptr %72, i32 0, i32 41
  %74 = load ptr, ptr %73, align 8, !tbaa !37
  %75 = load ptr, ptr %2, align 8, !tbaa !3
  %76 = getelementptr inbounds nuw %struct.cli_matcher, ptr %75, i32 0, i32 21
  %77 = load ptr, ptr %76, align 8, !tbaa !38
  call void @mpool_free(ptr noundef %74, ptr noundef %77)
  br label %78

78:                                               ; preds = %71, %66
  %79 = load ptr, ptr %2, align 8, !tbaa !3
  %80 = getelementptr inbounds nuw %struct.cli_matcher, ptr %79, i32 0, i32 22
  %81 = load ptr, ptr %80, align 8, !tbaa !65
  %82 = icmp ne ptr %81, null
  br i1 %82, label %83, label %90

83:                                               ; preds = %78
  %84 = load ptr, ptr %2, align 8, !tbaa !3
  %85 = getelementptr inbounds nuw %struct.cli_matcher, ptr %84, i32 0, i32 41
  %86 = load ptr, ptr %85, align 8, !tbaa !37
  %87 = load ptr, ptr %2, align 8, !tbaa !3
  %88 = getelementptr inbounds nuw %struct.cli_matcher, ptr %87, i32 0, i32 22
  %89 = load ptr, ptr %88, align 8, !tbaa !65
  call void @mpool_free(ptr noundef %86, ptr noundef %89)
  br label %90

90:                                               ; preds = %83, %78
  store i32 0, ptr %3, align 4, !tbaa !49
  br label %91

91:                                               ; preds = %108, %90
  %92 = load i32, ptr %3, align 4, !tbaa !49
  %93 = load ptr, ptr %2, align 8, !tbaa !3
  %94 = getelementptr inbounds nuw %struct.cli_matcher, ptr %93, i32 0, i32 14
  %95 = load i32, ptr %94, align 8, !tbaa !52
  %96 = icmp ult i32 %92, %95
  br i1 %96, label %97, label %111

97:                                               ; preds = %91
  %98 = load ptr, ptr %2, align 8, !tbaa !3
  %99 = getelementptr inbounds nuw %struct.cli_matcher, ptr %98, i32 0, i32 41
  %100 = load ptr, ptr %99, align 8, !tbaa !37
  %101 = load ptr, ptr %2, align 8, !tbaa !3
  %102 = getelementptr inbounds nuw %struct.cli_matcher, ptr %101, i32 0, i32 20
  %103 = load ptr, ptr %102, align 8, !tbaa !53
  %104 = load i32, ptr %3, align 4, !tbaa !49
  %105 = zext i32 %104 to i64
  %106 = getelementptr inbounds nuw ptr, ptr %103, i64 %105
  %107 = load ptr, ptr %106, align 8, !tbaa !54
  call void @mpool_free(ptr noundef %100, ptr noundef %107)
  br label %108

108:                                              ; preds = %97
  %109 = load i32, ptr %3, align 4, !tbaa !49
  %110 = add i32 %109, 1
  store i32 %110, ptr %3, align 4, !tbaa !49
  br label %91

111:                                              ; preds = %91
  %112 = load ptr, ptr %2, align 8, !tbaa !3
  %113 = getelementptr inbounds nuw %struct.cli_matcher, ptr %112, i32 0, i32 20
  %114 = load ptr, ptr %113, align 8, !tbaa !53
  %115 = icmp ne ptr %114, null
  br i1 %115, label %116, label %123

116:                                              ; preds = %111
  %117 = load ptr, ptr %2, align 8, !tbaa !3
  %118 = getelementptr inbounds nuw %struct.cli_matcher, ptr %117, i32 0, i32 41
  %119 = load ptr, ptr %118, align 8, !tbaa !37
  %120 = load ptr, ptr %2, align 8, !tbaa !3
  %121 = getelementptr inbounds nuw %struct.cli_matcher, ptr %120, i32 0, i32 20
  %122 = load ptr, ptr %121, align 8, !tbaa !53
  call void @mpool_free(ptr noundef %119, ptr noundef %122)
  br label %123

123:                                              ; preds = %116, %111
  store i32 0, ptr %3, align 4, !tbaa !49
  br label %124

124:                                              ; preds = %141, %123
  %125 = load i32, ptr %3, align 4, !tbaa !49
  %126 = load ptr, ptr %2, align 8, !tbaa !3
  %127 = getelementptr inbounds nuw %struct.cli_matcher, ptr %126, i32 0, i32 13
  %128 = load i32, ptr %127, align 4, !tbaa !66
  %129 = icmp ult i32 %125, %128
  br i1 %129, label %130, label %144

130:                                              ; preds = %124
  %131 = load ptr, ptr %2, align 8, !tbaa !3
  %132 = getelementptr inbounds nuw %struct.cli_matcher, ptr %131, i32 0, i32 41
  %133 = load ptr, ptr %132, align 8, !tbaa !37
  %134 = load ptr, ptr %2, align 8, !tbaa !3
  %135 = getelementptr inbounds nuw %struct.cli_matcher, ptr %134, i32 0, i32 19
  %136 = load ptr, ptr %135, align 8, !tbaa !67
  %137 = load i32, ptr %3, align 4, !tbaa !49
  %138 = zext i32 %137 to i64
  %139 = getelementptr inbounds nuw ptr, ptr %136, i64 %138
  %140 = load ptr, ptr %139, align 8, !tbaa !42
  call void @mpool_free(ptr noundef %133, ptr noundef %140)
  br label %141

141:                                              ; preds = %130
  %142 = load i32, ptr %3, align 4, !tbaa !49
  %143 = add i32 %142, 1
  store i32 %143, ptr %3, align 4, !tbaa !49
  br label %124

144:                                              ; preds = %124
  %145 = load ptr, ptr %2, align 8, !tbaa !3
  %146 = getelementptr inbounds nuw %struct.cli_matcher, ptr %145, i32 0, i32 19
  %147 = load ptr, ptr %146, align 8, !tbaa !67
  %148 = icmp ne ptr %147, null
  br i1 %148, label %149, label %156

149:                                              ; preds = %144
  %150 = load ptr, ptr %2, align 8, !tbaa !3
  %151 = getelementptr inbounds nuw %struct.cli_matcher, ptr %150, i32 0, i32 41
  %152 = load ptr, ptr %151, align 8, !tbaa !37
  %153 = load ptr, ptr %2, align 8, !tbaa !3
  %154 = getelementptr inbounds nuw %struct.cli_matcher, ptr %153, i32 0, i32 19
  %155 = load ptr, ptr %154, align 8, !tbaa !67
  call void @mpool_free(ptr noundef %152, ptr noundef %155)
  br label %156

156:                                              ; preds = %149, %144
  %157 = load ptr, ptr %2, align 8, !tbaa !3
  %158 = getelementptr inbounds nuw %struct.cli_matcher, ptr %157, i32 0, i32 18
  %159 = load ptr, ptr %158, align 8, !tbaa !41
  %160 = icmp ne ptr %159, null
  br i1 %160, label %161, label %176

161:                                              ; preds = %156
  %162 = load ptr, ptr %2, align 8, !tbaa !3
  %163 = getelementptr inbounds nuw %struct.cli_matcher, ptr %162, i32 0, i32 41
  %164 = load ptr, ptr %163, align 8, !tbaa !37
  %165 = load ptr, ptr %2, align 8, !tbaa !3
  %166 = getelementptr inbounds nuw %struct.cli_matcher, ptr %165, i32 0, i32 18
  %167 = load ptr, ptr %166, align 8, !tbaa !41
  %168 = getelementptr inbounds nuw %struct.cli_ac_node, ptr %167, i32 0, i32 1
  %169 = load ptr, ptr %168, align 8, !tbaa !43
  call void @mpool_free(ptr noundef %164, ptr noundef %169)
  %170 = load ptr, ptr %2, align 8, !tbaa !3
  %171 = getelementptr inbounds nuw %struct.cli_matcher, ptr %170, i32 0, i32 41
  %172 = load ptr, ptr %171, align 8, !tbaa !37
  %173 = load ptr, ptr %2, align 8, !tbaa !3
  %174 = getelementptr inbounds nuw %struct.cli_matcher, ptr %173, i32 0, i32 18
  %175 = load ptr, ptr %174, align 8, !tbaa !41
  call void @mpool_free(ptr noundef %172, ptr noundef %175)
  br label %176

176:                                              ; preds = %161, %156
  %177 = load ptr, ptr %2, align 8, !tbaa !3
  %178 = getelementptr inbounds nuw %struct.cli_matcher, ptr %177, i32 0, i32 27
  %179 = load ptr, ptr %178, align 8, !tbaa !50
  %180 = icmp ne ptr %179, null
  br i1 %180, label %181, label %188

181:                                              ; preds = %176
  %182 = load ptr, ptr %2, align 8, !tbaa !3
  %183 = getelementptr inbounds nuw %struct.cli_matcher, ptr %182, i32 0, i32 41
  %184 = load ptr, ptr %183, align 8, !tbaa !37
  %185 = load ptr, ptr %2, align 8, !tbaa !3
  %186 = getelementptr inbounds nuw %struct.cli_matcher, ptr %185, i32 0, i32 27
  %187 = load ptr, ptr %186, align 8, !tbaa !50
  call void @mpool_free(ptr noundef %184, ptr noundef %187)
  br label %188

188:                                              ; preds = %181, %176
  %189 = load ptr, ptr %2, align 8, !tbaa !3
  call void @free_trans_nodes(ptr noundef %189)
  call void @llvm.lifetime.end.p0(i64 8, ptr %4) #16
  call void @llvm.lifetime.end.p0(i64 4, ptr %3) #16
  ret void
}