; Function Attrs: nounwind uwtable
define void @cli_ac_free(ptr noundef captures(none) %0) local_unnamed_addr #0 {
  %2 = getelementptr inbounds nuw i8, ptr %0, i64 244
  %3 = load i32, ptr %2, align 4, !tbaa !32
  %.not72 = icmp eq i32 %3, 0
  br i1 %.not72, label %._crit_edge, label %.lr.ph

.lr.ph:                                           ; preds = %1
  %4 = getelementptr inbounds nuw i8, ptr %0, i64 288
  %5 = getelementptr inbounds nuw i8, ptr %0, i64 408
  br label %6

6:                                                ; preds = %.lr.ph, %29
  %indvars.iv = phi i64 [ 0, %.lr.ph ], [ %indvars.iv.next, %29 ]
  %7 = load ptr, ptr %4, align 8, !tbaa !34
  %8 = getelementptr inbounds nuw ptr, ptr %7, i64 %indvars.iv
  %9 = load ptr, ptr %8, align 8, !tbaa !35
  %10 = load ptr, ptr %5, align 8, !tbaa !33
  %11 = getelementptr inbounds nuw i8, ptr %9, i64 8
  %12 = load ptr, ptr %11, align 8, !tbaa !68
  %.not61 = icmp eq ptr %12, null
  br i1 %.not61, label %13, label %15

13:                                               ; preds = %6
  %14 = load ptr, ptr %9, align 8, !tbaa !27
  br label %15

15:                                               ; preds = %6, %13
  %16 = phi ptr [ %14, %13 ], [ %12, %6 ]
  tail call void @mpool_free(ptr noundef %10, ptr noundef %16) #19
  %17 = getelementptr inbounds nuw i8, ptr %9, i64 40
  %18 = load i32, ptr %17, align 8, !tbaa !55
  %19 = icmp eq i32 %18, 1
  br i1 %19, label %24, label %20

20:                                               ; preds = %15
  %21 = load ptr, ptr %5, align 8, !tbaa !33
  %22 = getelementptr inbounds nuw i8, ptr %9, i64 56
  %23 = load ptr, ptr %22, align 8, !tbaa !69
  tail call void @mpool_free(ptr noundef %21, ptr noundef %23) #19
  br label %24

24:                                               ; preds = %20, %15
  %25 = getelementptr inbounds nuw i8, ptr %9, i64 84
  %26 = load i16, ptr %25, align 4, !tbaa !70
  %.not62 = icmp eq i16 %26, 0
  br i1 %.not62, label %29, label %27

27:                                               ; preds = %24
  %28 = load ptr, ptr %5, align 8, !tbaa !33
  tail call fastcc void @ac_free_special(ptr noundef %28, ptr noundef nonnull %9)
  br label %29

29:                                               ; preds = %27, %24
  %30 = load ptr, ptr %5, align 8, !tbaa !33
  tail call void @mpool_free(ptr noundef %30, ptr noundef nonnull %9) #19
  %indvars.iv.next = add nuw nsw i64 %indvars.iv, 1
  %31 = load i32, ptr %2, align 4, !tbaa !32
  %32 = zext i32 %31 to i64
  %33 = icmp samesign ult i64 %indvars.iv.next, %32
  br i1 %33, label %6, label %._crit_edge

._crit_edge:                                      ; preds = %29, %1
  %34 = getelementptr inbounds nuw i8, ptr %0, i64 288
  %35 = load ptr, ptr %34, align 8, !tbaa !34
  %.not = icmp eq ptr %35, null
  br i1 %.not, label %39, label %36

36:                                               ; preds = %._crit_edge
  %37 = getelementptr inbounds nuw i8, ptr %0, i64 408
  %38 = load ptr, ptr %37, align 8, !tbaa !33
  tail call void @mpool_free(ptr noundef %38, ptr noundef nonnull %35) #19
  br label %39

39:                                               ; preds = %36, %._crit_edge
  %40 = getelementptr inbounds nuw i8, ptr %0, i64 296
  %41 = load ptr, ptr %40, align 8, !tbaa !71
  %.not56 = icmp eq ptr %41, null
  br i1 %.not56, label %45, label %42

42:                                               ; preds = %39
  %43 = getelementptr inbounds nuw i8, ptr %0, i64 408
  %44 = load ptr, ptr %43, align 8, !tbaa !33
  tail call void @mpool_free(ptr noundef %44, ptr noundef nonnull %41) #19
  br label %45

45:                                               ; preds = %42, %39
  %46 = getelementptr inbounds nuw i8, ptr %0, i64 240
  %47 = load i32, ptr %46, align 8, !tbaa !43
  %.not73 = icmp eq i32 %47, 0
  br i1 %.not73, label %._crit_edge67, label %.lr.ph66

.lr.ph66:                                         ; preds = %45
  %48 = getelementptr inbounds nuw i8, ptr %0, i64 408
  %49 = getelementptr inbounds nuw i8, ptr %0, i64 280
  br label %50

50:                                               ; preds = %.lr.ph66, %50
  %indvars.iv76 = phi i64 [ 0, %.lr.ph66 ], [ %indvars.iv.next77, %50 ]
  %51 = load ptr, ptr %48, align 8, !tbaa !33
  %52 = load ptr, ptr %49, align 8, !tbaa !44
  %53 = getelementptr inbounds nuw ptr, ptr %52, i64 %indvars.iv76
  %54 = load ptr, ptr %53, align 8, !tbaa !45
  tail call void @mpool_free(ptr noundef %51, ptr noundef %54) #19
  %indvars.iv.next77 = add nuw nsw i64 %indvars.iv76, 1
  %55 = load i32, ptr %46, align 8, !tbaa !43
  %56 = zext i32 %55 to i64
  %57 = icmp samesign ult i64 %indvars.iv.next77, %56
  br i1 %57, label %50, label %._crit_edge67

._crit_edge67:                                    ; preds = %50, %45
  %58 = getelementptr inbounds nuw i8, ptr %0, i64 280
  %59 = load ptr, ptr %58, align 8, !tbaa !44
  %.not57 = icmp eq ptr %59, null
  br i1 %.not57, label %63, label %60

60:                                               ; preds = %._crit_edge67
  %61 = getelementptr inbounds nuw i8, ptr %0, i64 408
  %62 = load ptr, ptr %61, align 8, !tbaa !33
  tail call void @mpool_free(ptr noundef %62, ptr noundef nonnull %59) #19
  br label %63

63:                                               ; preds = %60, %._crit_edge67
  %64 = getelementptr inbounds nuw i8, ptr %0, i64 236
  %65 = load i32, ptr %64, align 4, !tbaa !72
  %.not74 = icmp eq i32 %65, 0
  br i1 %.not74, label %._crit_edge71, label %.lr.ph70

.lr.ph70:                                         ; preds = %63
  %66 = getelementptr inbounds nuw i8, ptr %0, i64 408
  %67 = getelementptr inbounds nuw i8, ptr %0, i64 272
  br label %68

68:                                               ; preds = %.lr.ph70, %68
  %indvars.iv79 = phi i64 [ 0, %.lr.ph70 ], [ %indvars.iv.next80, %68 ]
  %69 = load ptr, ptr %66, align 8, !tbaa !33
  %70 = load ptr, ptr %67, align 8, !tbaa !73
  %71 = getelementptr inbounds nuw ptr, ptr %70, i64 %indvars.iv79
  %72 = load ptr, ptr %71, align 8, !tbaa !56
  tail call void @mpool_free(ptr noundef %69, ptr noundef %72) #19
  %indvars.iv.next80 = add nuw nsw i64 %indvars.iv79, 1
  %73 = load i32, ptr %64, align 4, !tbaa !72
  %74 = zext i32 %73 to i64
  %75 = icmp samesign ult i64 %indvars.iv.next80, %74
  br i1 %75, label %68, label %._crit_edge71

._crit_edge71:                                    ; preds = %68, %63
  %76 = getelementptr inbounds nuw i8, ptr %0, i64 272
  %77 = load ptr, ptr %76, align 8, !tbaa !73
  %.not58 = icmp eq ptr %77, null
  br i1 %.not58, label %81, label %78

78:                                               ; preds = %._crit_edge71
  %79 = getelementptr inbounds nuw i8, ptr %0, i64 408
  %80 = load ptr, ptr %79, align 8, !tbaa !33
  tail call void @mpool_free(ptr noundef %80, ptr noundef nonnull %77) #19
  br label %81

81:                                               ; preds = %78, %._crit_edge71
  %82 = getelementptr inbounds nuw i8, ptr %0, i64 264
  %83 = load ptr, ptr %82, align 8, !tbaa !38
  %.not59 = icmp eq ptr %83, null
  br i1 %.not59, label %91, label %84

84:                                               ; preds = %81
  %85 = getelementptr inbounds nuw i8, ptr %0, i64 408
  %86 = load ptr, ptr %85, align 8, !tbaa !33
  %87 = getelementptr inbounds nuw i8, ptr %83, i64 8
  %88 = load ptr, ptr %87, align 8, !tbaa !46
  tail call void @mpool_free(ptr noundef %86, ptr noundef %88) #19
  %89 = load ptr, ptr %85, align 8, !tbaa !33
  %90 = load ptr, ptr %82, align 8, !tbaa !38
  tail call void @mpool_free(ptr noundef %89, ptr noundef %90) #19
  br label %91

91:                                               ; preds = %84, %81
  %92 = getelementptr inbounds nuw i8, ptr %0, i64 320
  %93 = load ptr, ptr %92, align 8, !tbaa !57
  %.not60 = icmp eq ptr %93, null
  br i1 %.not60, label %97, label %94

94:                                               ; preds = %91
  %95 = getelementptr inbounds nuw i8, ptr %0, i64 408
  %96 = load ptr, ptr %95, align 8, !tbaa !33
  tail call void @mpool_free(ptr noundef %96, ptr noundef nonnull %93) #19
  br label %97

97:                                               ; preds = %94, %91
  %98 = getelementptr inbounds nuw i8, ptr %0, i64 392
  %99 = load i64, ptr %98, align 8, !tbaa !48
  %.not.i = icmp eq i64 %99, 0
  br i1 %.not.i, label %free_trans_nodes.exit, label %.lr.ph.i

.lr.ph.i:                                         ; preds = %97
  %100 = getelementptr inbounds nuw i8, ptr %0, i64 408
  %101 = getelementptr inbounds nuw i8, ptr %0, i64 384
  br label %102

102:                                              ; preds = %102, %.lr.ph.i
  %103 = phi i64 [ 0, %.lr.ph.i ], [ %109, %102 ]
  %.011.i = phi i32 [ 0, %.lr.ph.i ], [ %108, %102 ]
  %104 = load ptr, ptr %100, align 8, !tbaa !33
  %105 = load ptr, ptr %101, align 8, !tbaa !50
  %106 = getelementptr inbounds nuw ptr, ptr %105, i64 %103
  %107 = load ptr, ptr %106, align 8, !tbaa !51
  tail call void @mpool_free(ptr noundef %104, ptr noundef %107) #19
  %108 = add i32 %.011.i, 1
  %109 = zext i32 %108 to i64
  %110 = load i64, ptr %98, align 8, !tbaa !48
  %111 = icmp ugt i64 %110, %109
  br i1 %111, label %102, label %free_trans_nodes.exit

free_trans_nodes.exit:                            ; preds = %102, %97
  %112 = getelementptr inbounds nuw i8, ptr %0, i64 408
  %113 = load ptr, ptr %112, align 8, !tbaa !33
  %114 = getelementptr inbounds nuw i8, ptr %0, i64 384
  %115 = load ptr, ptr %114, align 8, !tbaa !50
  tail call void @mpool_free(ptr noundef %113, ptr noundef %115) #19
  tail call void @llvm.memset.p0.i64(ptr noundef nonnull align 8 dereferenceable(24) %114, i8 0, i64 24, i1 false)
  ret void
}